target datalayout = "e-m:e-p270:32:32-p271:32:32-p272:64:64-i64:64-i128:128-f80:128-n8:16:32:64-S128"
target triple = "x86_64-pc-linux-gnu"

%"class.vas::ot::HungarianAlgo" = type { i32, i32, i32, i32, i32, %"class.std::vector", %"class.cv::Mat_", %"struct.vas::ot::hungarian_problem_t" }
%"class.std::vector" = type { %"struct.std::_Vector_base" }
%"struct.std::_Vector_base" = type { %"struct.std::_Vector_base<int *, std::allocator<int *>>::_Vector_impl" }
%"struct.std::_Vector_base<int *, std::allocator<int *>>::_Vector_impl" = type { %"struct.std::_Vector_base<int *, std::allocator<int *>>::_Vector_impl_data" }
%"struct.std::_Vector_base<int *, std::allocator<int *>>::_Vector_impl_data" = type { ptr, ptr, ptr }
%"class.cv::Mat_" = type { %"class.cv::Mat" }
%"class.cv::Mat" = type { i32, i32, i32, i32, ptr, ptr, ptr, ptr, ptr, ptr, %"struct.cv::MatSize", %"struct.cv::MatStep" }
%"struct.cv::MatSize" = type { ptr }
%"struct.cv::MatStep" = type { ptr, [2 x i64] }
%"struct.vas::ot::hungarian_problem_t" = type { i32, i32, %"class.std::vector.0", %"class.std::vector.0" }
%"class.std::vector.0" = type { %"struct.std::_Vector_base.1" }
%"struct.std::_Vector_base.1" = type { %"struct.std::_Vector_base<std::vector<int>, std::allocator<std::vector<int>>>::_Vector_impl" }
%"struct.std::_Vector_base<std::vector<int>, std::allocator<std::vector<int>>>::_Vector_impl" = type { %"struct.std::_Vector_base<std::vector<int>, std::allocator<std::vector<int>>>::_Vector_impl_data" }
%"struct.std::_Vector_base<std::vector<int>, std::allocator<std::vector<int>>>::_Vector_impl_data" = type { ptr, ptr, ptr }
%"class.cv::Mat_.6" = type { %"class.cv::Mat" }
%"class.std::vector.7" = type { %"struct.std::_Vector_base.8" }
%"struct.std::_Vector_base.8" = type { %"struct.std::_Vector_base<int, std::allocator<int>>::_Vector_impl" }
%"struct.std::_Vector_base<int, std::allocator<int>>::_Vector_impl" = type { %"struct.std::_Vector_base<int, std::allocator<int>>::_Vector_impl_data" }
%"struct.std::_Vector_base<int, std::allocator<int>>::_Vector_impl_data" = type { ptr, ptr, ptr }

@.str = private unnamed_addr constant [48 x i8] c"Initialized with invalid cost_map size in Solve\00", align 1
@_ZTISt16invalid_argument = external constant ptr

; Function Attrs: mustprogress nounwind uwtable
define hidden void @_ZN3vas2ot13HungarianAlgo13FreeHungarianEv(ptr noundef nonnull align 8 dereferenceable(200) %0) #2 align 2 {
  %2 = alloca ptr, align 8
  store ptr %0, ptr %2, align 8, !tbaa !3
  ret void
}

; Function Attrs: inlinehint mustprogress nounwind uwtable
define linkonce_odr hidden noundef nonnull align 1 dereferenceable(1) ptr @_ZN2cv4Mat_IhEclEii(ptr noundef nonnull align 8 dereferenceable(96) %0, i32 noundef %1, i32 noundef %2) #3 comdat align 2 {
  %4 = alloca ptr, align 8
  %5 = alloca i32, align 4
  %6 = alloca i32, align 4
  store ptr %0, ptr %4, align 8, !tbaa !65
  store i32 %1, ptr %5, align 4, !tbaa !41
  store i32 %2, ptr %6, align 4, !tbaa !41
  %7 = load ptr, ptr %4, align 8
  %8 = getelementptr inbounds nuw %"class.cv::Mat", ptr %7, i32 0, i32 4
  %9 = load ptr, ptr %8, align 8, !tbaa !59
  %10 = getelementptr inbounds nuw %"class.cv::Mat", ptr %7, i32 0, i32 11
  %11 = getelementptr inbounds nuw %"struct.cv::MatStep", ptr %10, i32 0, i32 0
  %12 = load ptr, ptr %11, align 8, !tbaa !60
  %13 = getelementptr inbounds i64, ptr %12, i64 0
  %14 = load i64, ptr %13, align 8, !tbaa !53
  %15 = load i32, ptr %5, align 4, !tbaa !41
  %16 = sext i32 %15 to i64
  %17 = mul i64 %14, %16
  %18 = getelementptr inbounds nuw i8, ptr %9, i64 %17
  %19 = load i32, ptr %6, align 4, !tbaa !41
  %20 = sext i32 %19 to i64
  %21 = getelementptr inbounds i8, ptr %18, i64 %20
  ret ptr %21
}

; Function Attrs: mustprogress nounwind uwtable
define linkonce_odr hidden noundef nonnull align 4 dereferenceable(4) ptr @_ZNSt6vectorIiSaIiEEixEm(ptr noundef nonnull align 8 dereferenceable(24) %0, i64 noundef %1) #2 comdat align 2 {
  %3 = alloca ptr, align 8
  %4 = alloca i64, align 8
  store ptr %0, ptr %3, align 8, !tbaa !106
  store i64 %1, ptr %4, align 8, !tbaa !53
  %5 = load ptr, ptr %3, align 8
  %6 = getelementptr inbounds nuw %"struct.std::_Vector_base.8", ptr %5, i32 0, i32 0
  %7 = getelementptr inbounds nuw %"struct.std::_Vector_base<int, std::allocator<int>>::_Vector_impl_data", ptr %6, i32 0, i32 0
  %8 = load ptr, ptr %7, align 8, !tbaa !107
  %9 = load i64, ptr %4, align 8, !tbaa !53
  %10 = getelementptr inbounds nuw i32, ptr %8, i64 %9
  ret ptr %10
}

; Function Attrs: mustprogress nounwind uwtable
define linkonce_odr hidden noundef nonnull align 8 dereferenceable(24) ptr @_ZNSt6vectorIS_IiSaIiEESaIS1_EEixEm(ptr noundef nonnull align 8 dereferenceable(24) %0, i64 noundef %1) #2 comdat align 2 {
  %3 = alloca ptr, align 8
  %4 = alloca i64, align 8
  store ptr %0, ptr %3, align 8, !tbaa !103
  store i64 %1, ptr %4, align 8, !tbaa !53
  %5 = load ptr, ptr %3, align 8
  %6 = getelementptr inbounds nuw %"struct.std::_Vector_base.1", ptr %5, i32 0, i32 0
  %7 = getelementptr inbounds nuw %"struct.std::_Vector_base<std::vector<int>, std::allocator<std::vector<int>>>::_Vector_impl_data", ptr %6, i32 0, i32 0
  %8 = load ptr, ptr %7, align 8, !tbaa !105
  %9 = load i64, ptr %4, align 8, !tbaa !53
  %10 = getelementptr inbounds nuw %"class.std::vector.7", ptr %8, i64 %9
  ret ptr %10
}

; Function Attrs: inlinehint mustprogress uwtable
define linkonce_odr hidden void @_ZN2cv4Mat_IhE6createEii(ptr noundef nonnull align 8 dereferenceable(96) %0, i32 noundef %1, i32 noundef %2) #5 comdat align 2 {
  %4 = alloca ptr, align 8
  %5 = alloca i32, align 4
  %6 = alloca i32, align 4
  store ptr %0, ptr %4, align 8, !tbaa !65
  store i32 %1, ptr %5, align 4, !tbaa !41
  store i32 %2, ptr %6, align 4, !tbaa !41
  %7 = load ptr, ptr %4, align 8
  %8 = load i32, ptr %5, align 4, !tbaa !41
  %9 = load i32, ptr %6, align 4, !tbaa !41
  call void @_ZN2cv3Mat6createEiii(ptr noundef nonnull align 8 dereferenceable(96) %7, i32 noundef %8, i32 noundef %9, i32 noundef 0)
  ret void
}

; Function Attrs: inlinehint mustprogress nounwind uwtable
define linkonce_odr hidden void @_ZN2cv4Mat_IhEC2Ev(ptr noundef nonnull align 8 dereferenceable(96) %0) unnamed_addr #3 comdat align 2 {
  %2 = alloca ptr, align 8
  store ptr %0, ptr %2, align 8, !tbaa !65
  %3 = load ptr, ptr %2, align 8
  call void @_ZN2cv3MatC2Ev(ptr noundef nonnull align 8 dereferenceable(96) %3) #15
  %4 = getelementptr inbounds nuw %"class.cv::Mat", ptr %3, i32 0, i32 0
  %5 = load i32, ptr %4, align 8, !tbaa !51
  %6 = and i32 %5, -4096
  %7 = add nsw i32 %6, 0
  %8 = getelementptr inbounds nuw %"class.cv::Mat", ptr %3, i32 0, i32 0
  store i32 %7, ptr %8, align 8, !tbaa !51
  ret void
}

; Function Attrs: mustprogress uwtable
define hidden void @_ZN3vas2ot13HungarianAlgo5SolveEv(ptr dead_on_unwind noalias writable sret(%"class.cv::Mat_.6") align 8 %0, ptr noundef nonnull align 8 dereferenceable(200) %1) #0 align 2 personality ptr @__gxx_personality_v0 {
  %3 = alloca ptr, align 8
  %4 = alloca ptr, align 8
  %5 = alloca ptr, align 8
  %6 = alloca i32, align 4
  %7 = alloca i1, align 1
  %8 = alloca i32, align 4
  %9 = alloca i32, align 4
  %10 = alloca i32, align 4
  %11 = alloca i32, align 4
  store ptr %0, ptr %3, align 8
  store ptr %1, ptr %4, align 8, !tbaa !3
  %12 = load ptr, ptr %4, align 8
  %13 = getelementptr inbounds nuw %"class.vas::ot::HungarianAlgo", ptr %12, i32 0, i32 1
  %14 = load i32, ptr %13, align 4, !tbaa !36
  %15 = icmp sgt i32 %14, 0
  br i1 %15, label %16, label %20

16:                                               ; preds = %2
  %17 = getelementptr inbounds nuw %"class.vas::ot::HungarianAlgo", ptr %12, i32 0, i32 0
  %18 = load i32, ptr %17, align 8, !tbaa !20
  %19 = icmp sgt i32 %18, 0
  br i1 %19, label %27, label %20

20:                                               ; preds = %16, %2
  %21 = call ptr @__cxa_allocate_exception(i64 16) #15
  invoke void @_ZNSt16invalid_argumentC1EPKc(ptr noundef nonnull align 8 dereferenceable(16) %21, ptr noundef @.str)
          to label %22 unwind label %23

22:                                               ; preds = %20
  call void @__cxa_throw(ptr %21, ptr @_ZTISt16invalid_argument, ptr @_ZNSt16invalid_argumentD1Ev) #17
  unreachable

23:                                               ; preds = %20
  %24 = landingpad { ptr, i32 }
          cleanup
  %25 = extractvalue { ptr, i32 } %24, 0
  store ptr %25, ptr %5, align 8
  %26 = extractvalue { ptr, i32 } %24, 1
  store i32 %26, ptr %6, align 4
  call void @__cxa_free_exception(ptr %21) #15
  br label %81

27:                                               ; preds = %16
  store i1 false, ptr %7, align 1
  call void @_ZN2cv4Mat_IhEC2Ev(ptr noundef nonnull align 8 dereferenceable(96) %0) #15
  call void @llvm.lifetime.start.p0(i64 4, ptr %8) #15
  %28 = invoke noundef i32 @_ZN3vas2ot13HungarianAlgo13InitHungarianEi(ptr noundef nonnull align 8 dereferenceable(200) %12, i32 noundef 0)
          to label %29 unwind label %39

29:                                               ; preds = %27
  store i32 %28, ptr %8, align 4, !tbaa !41
  invoke void @_ZN3vas2ot13HungarianAlgo14SolveHungarianEv(ptr noundef nonnull align 8 dereferenceable(200) %12)
          to label %30 unwind label %39

30:                                               ; preds = %29
  %31 = load i32, ptr %8, align 4, !tbaa !41
  %32 = load i32, ptr %8, align 4, !tbaa !41
  invoke void @_ZN2cv4Mat_IhE6createEii(ptr noundef nonnull align 8 dereferenceable(96) %0, i32 noundef %31, i32 noundef %32)
          to label %33 unwind label %39

33:                                               ; preds = %30
  call void @llvm.lifetime.start.p0(i64 4, ptr %9) #15
  store i32 0, ptr %9, align 4, !tbaa !41
  br label %34

34:                                               ; preds = %72, %33
  %35 = load i32, ptr %9, align 4, !tbaa !41
  %36 = load i32, ptr %8, align 4, !tbaa !41
  %37 = icmp slt i32 %35, %36
  br i1 %37, label %43, label %38

38:                                               ; preds = %34
  store i32 2, ptr %10, align 4
  call void @llvm.lifetime.end.p0(i64 4, ptr %9) #15
  br label %75

39:                                               ; preds = %75, %30, %29, %27
  %40 = landingpad { ptr, i32 }
          cleanup
  %41 = extractvalue { ptr, i32 } %40, 0
  store ptr %41, ptr %5, align 8
  %42 = extractvalue { ptr, i32 } %40, 1
  store i32 %42, ptr %6, align 4
  br label %78

43:                                               ; preds = %34
  call void @llvm.lifetime.start.p0(i64 4, ptr %11) #15
  store i32 0, ptr %11, align 4, !tbaa !41
  br label %44

44:                                               ; preds = %64, %43
  %45 = load i32, ptr %11, align 4, !tbaa !41
  %46 = load i32, ptr %8, align 4, !tbaa !41
  %47 = icmp slt i32 %45, %46
  br i1 %47, label %49, label %48

48:                                               ; preds = %44
  store i32 5, ptr %10, align 4
  call void @llvm.lifetime.end.p0(i64 4, ptr %11) #15
  br label %71

49:                                               ; preds = %44
  %50 = getelementptr inbounds nuw %"class.vas::ot::HungarianAlgo", ptr %12, i32 0, i32 7
  %51 = getelementptr inbounds nuw %"struct.vas::ot::hungarian_problem_t", ptr %50, i32 0, i32 3
  %52 = load i32, ptr %9, align 4, !tbaa !41
  %53 = sext i32 %52 to i64
  %54 = call noundef nonnull align 8 dereferenceable(24) ptr @_ZNSt6vectorIS_IiSaIiEESaIS1_EEixEm(ptr noundef nonnull align 8 dereferenceable(24) %51, i64 noundef %53) #15
  %55 = load i32, ptr %11, align 4, !tbaa !41
  %56 = sext i32 %55 to i64
  %57 = call noundef nonnull align 4 dereferenceable(4) ptr @_ZNSt6vectorIiSaIiEEixEm(ptr noundef nonnull align 8 dereferenceable(24) %54, i64 noundef %56) #15
  %58 = load i32, ptr %57, align 4, !tbaa !41
  %59 = trunc i32 %58 to i8
  %60 = load i32, ptr %9, align 4, !tbaa !41
  %61 = load i32, ptr %11, align 4, !tbaa !41
  %62 = invoke noundef nonnull align 1 dereferenceable(1) ptr @_ZN2cv4Mat_IhEclEii(ptr noundef nonnull align 8 dereferenceable(96) %0, i32 noundef %60, i32 noundef %61)
          to label %63 unwind label %67

63:                                               ; preds = %49
  store i8 %59, ptr %62, align 1, !tbaa !62
  br label %64

64:                                               ; preds = %63
  %65 = load i32, ptr %11, align 4, !tbaa !41
  %66 = add nsw i32 %65, 1
  store i32 %66, ptr %11, align 4, !tbaa !41
  br label %44, !llvm.loop !63

67:                                               ; preds = %49
  %68 = landingpad { ptr, i32 }
          cleanup
  %69 = extractvalue { ptr, i32 } %68, 0
  store ptr %69, ptr %5, align 8
  %70 = extractvalue { ptr, i32 } %68, 1
  store i32 %70, ptr %6, align 4
  call void @llvm.lifetime.end.p0(i64 4, ptr %11) #15
  call void @llvm.lifetime.end.p0(i64 4, ptr %9) #15
  br label %78

71:                                               ; preds = %48
  br label %72

72:                                               ; preds = %71
  %73 = load i32, ptr %9, align 4, !tbaa !41
  %74 = add nsw i32 %73, 1
  store i32 %74, ptr %9, align 4, !tbaa !41
  br label %34, !llvm.loop !64

75:                                               ; preds = %38
  invoke void @_ZN3vas2ot13HungarianAlgo13FreeHungarianEv(ptr noundef nonnull align 8 dereferenceable(200) %12)
          to label %76 unwind label %39

76:                                               ; preds = %75
  store i1 true, ptr %7, align 1
  store i32 1, ptr %10, align 4
  call void @llvm.lifetime.end.p0(i64 4, ptr %8) #15
  %77 = load i1, ptr %7, align 1
  br i1 %77, label %80, label %79

78:                                               ; preds = %67, %39
  call void @llvm.lifetime.end.p0(i64 4, ptr %8) #15
  call void @_ZN2cv3MatD2Ev(ptr noundef nonnull align 8 dereferenceable(96) %0) #15
  br label %81

79:                                               ; preds = %76
  call void @_ZN2cv3MatD2Ev(ptr noundef nonnull align 8 dereferenceable(96) %0) #15
  br label %80

80:                                               ; preds = %79, %76
  ret void

81:                                               ; preds = %78, %23
  %82 = load ptr, ptr %5, align 8
  %83 = load i32, ptr %6, align 4
  %84 = insertvalue { ptr, i32 } poison, ptr %82, 0
  %85 = insertvalue { ptr, i32 } %84, i32 %83, 1
  resume { ptr, i32 } %85
}