; Function Attrs: mustprogress uwtable
define hidden void @_ZN3vas2ot13HungarianAlgo5SolveEv(ptr dead_on_unwind noalias writable sret(%"class.cv::Mat_.6") align 8 %0, ptr noundef nonnull align 8 dereferenceable(200) %1) local_unnamed_addr #0 align 2 personality ptr @__gxx_personality_v0 {
  %3 = getelementptr inbounds nuw i8, ptr %1, i64 4
  %4 = load i32, ptr %3, align 4, !tbaa !32
  %5 = icmp sgt i32 %4, 0
  %6 = load i32, ptr %1, align 8
  %7 = icmp sgt i32 %6, 0
  %or.cond = select i1 %5, i1 %7, i1 false
  br i1 %or.cond, label %13, label %8

8:                                                ; preds = %2
  %9 = tail call ptr @__cxa_allocate_exception(i64 16) #16
  invoke void @_ZNSt16invalid_argumentC1EPKc(ptr noundef nonnull align 8 dereferenceable(16) %9, ptr noundef nonnull @.str)
          to label %10 unwind label %11

10:                                               ; preds = %8
  tail call void @__cxa_throw(ptr nonnull %9, ptr nonnull @_ZTISt16invalid_argument, ptr nonnull @_ZNSt16invalid_argumentD1Ev) #18
  unreachable

11:                                               ; preds = %8
  %12 = landingpad { ptr, i32 }
          cleanup
  tail call void @__cxa_free_exception(ptr nonnull %9) #16
  br label %38

13:                                               ; preds = %2
  tail call void @_ZN2cv3MatC2Ev(ptr noundef nonnull align 8 dereferenceable(96) %0) #16
  %14 = load i32, ptr %0, align 8, !tbaa !36
  %15 = and i32 %14, -4096
  store i32 %15, ptr %0, align 8, !tbaa !36
  %16 = invoke noundef i32 @_ZN3vas2ot13HungarianAlgo13InitHungarianEi(ptr noundef nonnull align 8 dereferenceable(200) %1, i32 noundef 0)
          to label %17 unwind label %36

17:                                               ; preds = %13
  invoke void @_ZN3vas2ot13HungarianAlgo14SolveHungarianEv(ptr noundef nonnull align 8 dereferenceable(200) %1)
          to label %18 unwind label %36

18:                                               ; preds = %17
  invoke void @_ZN2cv3Mat6createEiii(ptr noundef nonnull align 8 dereferenceable(96) %0, i32 noundef %16, i32 noundef %16, i32 noundef 0)
          to label %_ZN2cv4Mat_IhE6createEii.exit.preheader unwind label %36

_ZN2cv4Mat_IhE6createEii.exit.preheader:          ; preds = %18
  %19 = icmp sgt i32 %16, 0
  br i1 %19, label %.preheader.lr.ph, label %_ZN2cv4Mat_IhE6createEii.exit._crit_edge

.preheader.lr.ph:                                 ; preds = %_ZN2cv4Mat_IhE6createEii.exit.preheader
  %20 = getelementptr inbounds nuw i8, ptr %1, i64 176
  %21 = getelementptr inbounds nuw i8, ptr %0, i64 16
  %22 = getelementptr inbounds nuw i8, ptr %0, i64 72
  %wide.trip.count27 = zext nneg i32 %16 to i64
  br label %.preheader.us

.preheader.us:                                    ; preds = %._crit_edge.us, %.preheader.lr.ph
  %indvars.iv24 = phi i64 [ %indvars.iv.next25, %._crit_edge.us ], [ 0, %.preheader.lr.ph ]
  br label %23

23:                                               ; preds = %.preheader.us, %23
  %indvars.iv = phi i64 [ 0, %.preheader.us ], [ %indvars.iv.next, %23 ]
  %24 = load ptr, ptr %20, align 8, !tbaa !52
  %25 = getelementptr inbounds nuw %"class.std::vector.7", ptr %24, i64 %indvars.iv24
  %26 = load ptr, ptr %25, align 8, !tbaa !54
  %27 = getelementptr inbounds nuw i32, ptr %26, i64 %indvars.iv
  %28 = load i32, ptr %27, align 4, !tbaa !50
  %29 = trunc i32 %28 to i8
  %30 = load ptr, ptr %21, align 8, !tbaa !40
  %31 = load ptr, ptr %22, align 8, !tbaa !41
  %32 = load i64, ptr %31, align 8, !tbaa !42
  %33 = mul i64 %32, %indvars.iv24
  %34 = getelementptr inbounds nuw i8, ptr %30, i64 %33
  %35 = getelementptr inbounds nuw i8, ptr %34, i64 %indvars.iv
  store i8 %29, ptr %35, align 1, !tbaa !57
  %indvars.iv.next = add nuw nsw i64 %indvars.iv, 1
  %exitcond.not = icmp eq i64 %indvars.iv.next, %wide.trip.count27
  br i1 %exitcond.not, label %._crit_edge.us, label %23, !llvm.loop !58

._crit_edge.us:                                   ; preds = %23
  %indvars.iv.next25 = add nuw nsw i64 %indvars.iv24, 1
  %exitcond28.not = icmp eq i64 %indvars.iv.next25, %wide.trip.count27
  br i1 %exitcond28.not, label %_ZN2cv4Mat_IhE6createEii.exit._crit_edge, label %.preheader.us, !llvm.loop !59

_ZN2cv4Mat_IhE6createEii.exit._crit_edge:         ; preds = %._crit_edge.us, %_ZN2cv4Mat_IhE6createEii.exit.preheader
  ret void

36:                                               ; preds = %18, %17, %13
  %37 = landingpad { ptr, i32 }
          cleanup
  tail call void @_ZN2cv3MatD2Ev(ptr noundef nonnull align 8 dereferenceable(96) %0) #16
  br label %38

38:                                               ; preds = %36, %11
  %.pn = phi { ptr, i32 } [ %37, %36 ], [ %12, %11 ]
  resume { ptr, i32 } %.pn
}